target datalayout = "e-m:e-p270:32:32-p271:32:32-p272:64:64-i64:64-i128:128-f80:128-n8:16:32:64-S128"
target triple = "x86_64-pc-linux-gnu"

@.str.78 = private unnamed_addr constant [6 x i8] c"cache\00", align 1
@.str.81 = private unnamed_addr constant [5 x i8] c"flat\00", align 1
@.str.83 = private unnamed_addr constant [7 x i8] c"hybrid\00", align 1
@.str.85 = private unnamed_addr constant [6 x i8] c"equal\00", align 1
@.str.87 = private unnamed_addr constant [5 x i8] c"auto\00", align 1
@.str.152 = private unnamed_addr constant [7 x i8] c"memory\00", align 1

; Function Attrs: nounwind uwtable
define internal zeroext i16 @_knl_mcdram_token(ptr noundef %0) #0 {
  %2 = alloca ptr, align 8
  %3 = alloca i16, align 2
  store ptr %0, ptr %2, align 8
  call void @llvm.lifetime.start.p0(i64 2, ptr %3) #9
  store i16 0, ptr %3, align 2
  %4 = load ptr, ptr %2, align 8
  %5 = call i32 @xstrcasecmp(ptr noundef %4, ptr noundef @.str.78)
  %6 = icmp ne i32 %5, 0
  br i1 %6, label %8, label %7

7:                                                ; preds = %1
  store i16 256, ptr %3, align 2
  br label %36

8:                                                ; preds = %1
  %9 = load ptr, ptr %2, align 8
  %10 = call i32 @xstrcasecmp(ptr noundef %9, ptr noundef @.str.83)
  %11 = icmp ne i32 %10, 0
  br i1 %11, label %13, label %12

12:                                               ; preds = %8
  store i16 1024, ptr %3, align 2
  br label %35

13:                                               ; preds = %8
  %14 = load ptr, ptr %2, align 8
  %15 = call i32 @xstrcasecmp(ptr noundef %14, ptr noundef @.str.81)
  %16 = icmp ne i32 %15, 0
  br i1 %16, label %17, label %21

17:                                               ; preds = %13
  %18 = load ptr, ptr %2, align 8
  %19 = call i32 @xstrcasecmp(ptr noundef %18, ptr noundef @.str.152)
  %20 = icmp ne i32 %19, 0
  br i1 %20, label %22, label %21

21:                                               ; preds = %17, %13
  store i16 2048, ptr %3, align 2
  br label %34

22:                                               ; preds = %17
  %23 = load ptr, ptr %2, align 8
  %24 = call i32 @xstrcasecmp(ptr noundef %23, ptr noundef @.str.85)
  %25 = icmp ne i32 %24, 0
  br i1 %25, label %27, label %26

26:                                               ; preds = %22
  store i16 512, ptr %3, align 2
  br label %33

27:                                               ; preds = %22
  %28 = load ptr, ptr %2, align 8
  %29 = call i32 @xstrcasecmp(ptr noundef %28, ptr noundef @.str.87)
  %30 = icmp ne i32 %29, 0
  br i1 %30, label %32, label %31

31:                                               ; preds = %27
  store i16 4096, ptr %3, align 2
  br label %32

32:                                               ; preds = %31, %27
  br label %33

33:                                               ; preds = %32, %26
  br label %34

34:                                               ; preds = %33, %21
  br label %35

35:                                               ; preds = %34, %12
  br label %36

36:                                               ; preds = %35, %7
  %37 = load i16, ptr %3, align 2
  call void @llvm.lifetime.end.p0(i64 2, ptr %3) #9
  ret i16 %37
}