; Function Attrs: nounwind uwtable
define internal fastcc zeroext range(i16 0, 4097) i16 @_knl_mcdram_token(ptr noundef %0) unnamed_addr #0 {
  %2 = tail call i32 @xstrcasecmp(ptr noundef %0, ptr noundef nonnull @.str.78) #14
  %.not = icmp eq i32 %2, 0
  br i1 %.not, label %13, label %3

3:                                                ; preds = %1
  %4 = tail call i32 @xstrcasecmp(ptr noundef %0, ptr noundef nonnull @.str.83) #14
  %.not6 = icmp eq i32 %4, 0
  br i1 %.not6, label %13, label %5

5:                                                ; preds = %3
  %6 = tail call i32 @xstrcasecmp(ptr noundef %0, ptr noundef nonnull @.str.81) #14
  %.not7 = icmp eq i32 %6, 0
  br i1 %.not7, label %13, label %7

7:                                                ; preds = %5
  %8 = tail call i32 @xstrcasecmp(ptr noundef %0, ptr noundef nonnull @.str.152) #14
  %.not8 = icmp eq i32 %8, 0
  br i1 %.not8, label %13, label %9

9:                                                ; preds = %7
  %10 = tail call i32 @xstrcasecmp(ptr noundef %0, ptr noundef nonnull @.str.85) #14
  %.not9 = icmp eq i32 %10, 0
  br i1 %.not9, label %13, label %11

11:                                               ; preds = %9
  %12 = tail call i32 @xstrcasecmp(ptr noundef %0, ptr noundef nonnull @.str.87) #14
  %.not10 = icmp eq i32 %12, 0
  %spec.select = select i1 %.not10, i16 4096, i16 0
  br label %13

13:                                               ; preds = %11, %9, %5, %7, %3, %1
  %.0 = phi i16 [ 256, %1 ], [ 1024, %3 ], [ 2048, %7 ], [ 2048, %5 ], [ 512, %9 ], [ %spec.select, %11 ]
  ret i16 %.0
}